target datalayout = "e-m:e-p270:32:32-p271:32:32-p272:64:64-i64:64-i128:128-f80:128-n8:16:32:64-S128"
target triple = "x86_64-pc-linux-gnu"

%"class.cv::Mat" = type { i32, i32, i32, i32, ptr, ptr, ptr, ptr, ptr, ptr, %"struct.cv::MatSize", %"struct.cv::MatStep" }
%"struct.cv::MatSize" = type { ptr }
%"struct.cv::MatStep" = type { ptr, [2 x i64] }
%"class.cv::ximgproc::EdgeAwareInterpolatorImpl" = type { %"class.cv::ximgproc::EdgeAwareInterpolator", i32, i32, i32, ptr, %"class.cv::Mat", %"class.cv::Mat", %"class.cv::Mat", %"class.cv::Mat", float, i32, float, i8, float, float, float, [4 x %"class.cv::RNG"] }
%"class.cv::ximgproc::EdgeAwareInterpolator" = type { %"class.cv::ximgproc::SparseMatchInterpolator" }
%"class.cv::ximgproc::SparseMatchInterpolator" = type { %"class.cv::Algorithm" }
%"class.cv::Algorithm" = type { ptr }
%"class.cv::RNG" = type { i64 }

; Function Attrs: mustprogress uwtable
define hidden void @_ZN2cv8ximgproc25EdgeAwareInterpolatorImpl4initEv(ptr noundef nonnull align 8 dereferenceable(480) %0) #4 align 2 personality ptr @__gxx_personality_v0 {
  %2 = alloca ptr, align 8
  %3 = alloca %"class.cv::Mat", align 8
  %4 = alloca ptr, align 8
  %5 = alloca i32, align 4
  store ptr %0, ptr %2, align 8, !tbaa !3
  %6 = load ptr, ptr %2, align 8
  %7 = getelementptr inbounds nuw %"class.cv::ximgproc::EdgeAwareInterpolatorImpl", ptr %6, i32 0, i32 9
  store float 9.990000e+02, ptr %7, align 8, !tbaa !8
  %8 = getelementptr inbounds nuw %"class.cv::ximgproc::EdgeAwareInterpolatorImpl", ptr %6, i32 0, i32 10
  store i32 128, ptr %8, align 4, !tbaa !25
  %9 = getelementptr inbounds nuw %"class.cv::ximgproc::EdgeAwareInterpolatorImpl", ptr %6, i32 0, i32 11
  store float 0x3FA99999A0000000, ptr %9, align 8, !tbaa !26
  %10 = getelementptr inbounds nuw %"class.cv::ximgproc::EdgeAwareInterpolatorImpl", ptr %6, i32 0, i32 12
  store i8 1, ptr %10, align 4, !tbaa !27
  %11 = getelementptr inbounds nuw %"class.cv::ximgproc::EdgeAwareInterpolatorImpl", ptr %6, i32 0, i32 13
  store float 5.000000e+02, ptr %11, align 8, !tbaa !28
  %12 = getelementptr inbounds nuw %"class.cv::ximgproc::EdgeAwareInterpolatorImpl", ptr %6, i32 0, i32 14
  store float 1.500000e+00, ptr %12, align 4, !tbaa !29
  %13 = getelementptr inbounds nuw %"class.cv::ximgproc::EdgeAwareInterpolatorImpl", ptr %6, i32 0, i32 15
  store float 0x3F847AE140000000, ptr %13, align 8, !tbaa !30
  call void @llvm.lifetime.start.p0(i64 96, ptr %3) #3
  call void @_ZN2cv3MatC1Ev(ptr noundef nonnull align 8 dereferenceable(96) %3) #3
  %14 = getelementptr inbounds nuw %"class.cv::ximgproc::EdgeAwareInterpolatorImpl", ptr %6, i32 0, i32 8
  %15 = invoke noundef nonnull align 8 dereferenceable(96) ptr @_ZN2cv3MataSEOS0_(ptr noundef nonnull align 8 dereferenceable(96) %14, ptr noundef nonnull align 8 dereferenceable(96) %3)
          to label %16 unwind label %17

16:                                               ; preds = %1
  call void @_ZN2cv3MatD1Ev(ptr noundef nonnull align 8 dereferenceable(96) %3) #3
  call void @llvm.lifetime.end.p0(i64 96, ptr %3) #3
  ret void

17:                                               ; preds = %1
  %18 = landingpad { ptr, i32 }
          cleanup
  %19 = extractvalue { ptr, i32 } %18, 0
  store ptr %19, ptr %4, align 8
  %20 = extractvalue { ptr, i32 } %18, 1
  store i32 %20, ptr %5, align 4
  call void @_ZN2cv3MatD1Ev(ptr noundef nonnull align 8 dereferenceable(96) %3) #3
  call void @llvm.lifetime.end.p0(i64 96, ptr %3) #3
  br label %21

21:                                               ; preds = %17
  %22 = load ptr, ptr %4, align 8
  %23 = load i32, ptr %5, align 4
  %24 = insertvalue { ptr, i32 } poison, ptr %22, 0
  %25 = insertvalue { ptr, i32 } %24, i32 %23, 1
  resume { ptr, i32 } %25
}