; Function Attrs: mustprogress uwtable
define hidden void @_ZN2cv8ximgproc25EdgeAwareInterpolatorImpl4initEv(ptr noundef nonnull align 8 dereferenceable(480) initializes((416, 429), (432, 444)) %0) local_unnamed_addr #3 align 2 personality ptr @__gxx_personality_v0 {
  %2 = alloca %"class.cv::Mat", align 8
  %3 = getelementptr inbounds nuw i8, ptr %0, i64 416
  store float 9.990000e+02, ptr %3, align 8, !tbaa !3
  %4 = getelementptr inbounds nuw i8, ptr %0, i64 420
  store i32 128, ptr %4, align 4, !tbaa !23
  %5 = getelementptr inbounds nuw i8, ptr %0, i64 424
  store float 0x3FA99999A0000000, ptr %5, align 8, !tbaa !24
  %6 = getelementptr inbounds nuw i8, ptr %0, i64 428
  store i8 1, ptr %6, align 4, !tbaa !25
  %7 = getelementptr inbounds nuw i8, ptr %0, i64 432
  store float 5.000000e+02, ptr %7, align 8, !tbaa !26
  %8 = getelementptr inbounds nuw i8, ptr %0, i64 436
  store float 1.500000e+00, ptr %8, align 4, !tbaa !27
  %9 = getelementptr inbounds nuw i8, ptr %0, i64 440
  store float 0x3F847AE140000000, ptr %9, align 8, !tbaa !28
  call void @llvm.lifetime.start.p0(i64 96, ptr nonnull %2) #31
  call void @_ZN2cv3MatC1Ev(ptr noundef nonnull align 8 dereferenceable(96) %2) #31
  %10 = getelementptr inbounds nuw i8, ptr %0, i64 320
  %11 = invoke noundef nonnull align 8 dereferenceable(96) ptr @_ZN2cv3MataSEOS0_(ptr noundef nonnull align 8 dereferenceable(96) %10, ptr noundef nonnull align 8 dereferenceable(96) %2)
          to label %12 unwind label %13

12:                                               ; preds = %1
  call void @_ZN2cv3MatD1Ev(ptr noundef nonnull align 8 dereferenceable(96) %2) #31
  call void @llvm.lifetime.end.p0(i64 96, ptr nonnull %2) #31
  ret void

13:                                               ; preds = %1
  %14 = landingpad { ptr, i32 }
          cleanup
  call void @_ZN2cv3MatD1Ev(ptr noundef nonnull align 8 dereferenceable(96) %2) #31
  call void @llvm.lifetime.end.p0(i64 96, ptr nonnull %2) #31
  resume { ptr, i32 } %14
}